target datalayout = "e-m:e-p270:32:32-p271:32:32-p272:64:64-i64:64-i128:128-f80:128-n8:16:32:64-S128"
target triple = "x86_64-pc-linux-gnu"

%struct.PrintfTarget = type { ptr, ptr, ptr, ptr, i32, i8 }

@.str = private unnamed_addr constant [4 x i8] c"NaN\00", align 1
@pg_strfromd.dzero = internal constant double 0.000000e+00, align 8
@.str.1 = private unnamed_addr constant [9 x i8] c"Infinity\00", align 1

; Function Attrs: nounwind uwtable
define internal void @flushbuffer(ptr noundef %0) #0 {
  %2 = alloca ptr, align 8
  %3 = alloca i64, align 8
  %4 = alloca i64, align 8
  store ptr %0, ptr %2, align 8
  call void @llvm.lifetime.start.p0(i64 8, ptr %3) #10
  %5 = load ptr, ptr %2, align 8
  %6 = getelementptr inbounds nuw %struct.PrintfTarget, ptr %5, i32 0, i32 0
  %7 = load ptr, ptr %6, align 8
  %8 = load ptr, ptr %2, align 8
  %9 = getelementptr inbounds nuw %struct.PrintfTarget, ptr %8, i32 0, i32 1
  %10 = load ptr, ptr %9, align 8
  %11 = ptrtoint ptr %7 to i64
  %12 = ptrtoint ptr %10 to i64
  %13 = sub i64 %11, %12
  store i64 %13, ptr %3, align 8
  %14 = load ptr, ptr %2, align 8
  %15 = getelementptr inbounds nuw %struct.PrintfTarget, ptr %14, i32 0, i32 5
  %16 = load i8, ptr %15, align 4, !range !3, !noundef !4
  %17 = trunc i8 %16 to i1
  br i1 %17, label %44, label %18

18:                                               ; preds = %1
  %19 = load i64, ptr %3, align 8
  %20 = icmp ugt i64 %19, 0
  br i1 %20, label %21, label %44

21:                                               ; preds = %18
  call void @llvm.lifetime.start.p0(i64 8, ptr %4) #10
  %22 = load ptr, ptr %2, align 8
  %23 = getelementptr inbounds nuw %struct.PrintfTarget, ptr %22, i32 0, i32 1
  %24 = load ptr, ptr %23, align 8
  %25 = load i64, ptr %3, align 8
  %26 = load ptr, ptr %2, align 8
  %27 = getelementptr inbounds nuw %struct.PrintfTarget, ptr %26, i32 0, i32 3
  %28 = load ptr, ptr %27, align 8
  %29 = call i64 @fwrite(ptr noundef %24, i64 noundef 1, i64 noundef %25, ptr noundef %28)
  store i64 %29, ptr %4, align 8
  %30 = load i64, ptr %4, align 8
  %31 = load ptr, ptr %2, align 8
  %32 = getelementptr inbounds nuw %struct.PrintfTarget, ptr %31, i32 0, i32 4
  %33 = load i32, ptr %32, align 8
  %34 = sext i32 %33 to i64
  %35 = add i64 %34, %30
  %36 = trunc i64 %35 to i32
  store i32 %36, ptr %32, align 8
  %37 = load i64, ptr %4, align 8
  %38 = load i64, ptr %3, align 8
  %39 = icmp ne i64 %37, %38
  br i1 %39, label %40, label %43

40:                                               ; preds = %21
  %41 = load ptr, ptr %2, align 8
  %42 = getelementptr inbounds nuw %struct.PrintfTarget, ptr %41, i32 0, i32 5
  store i8 1, ptr %42, align 4
  br label %43

43:                                               ; preds = %40, %21
  call void @llvm.lifetime.end.p0(i64 8, ptr %4) #10
  br label %44

44:                                               ; preds = %43, %18, %1
  %45 = load ptr, ptr %2, align 8
  %46 = getelementptr inbounds nuw %struct.PrintfTarget, ptr %45, i32 0, i32 1
  %47 = load ptr, ptr %46, align 8
  %48 = load ptr, ptr %2, align 8
  %49 = getelementptr inbounds nuw %struct.PrintfTarget, ptr %48, i32 0, i32 0
  store ptr %47, ptr %49, align 8
  call void @llvm.lifetime.end.p0(i64 8, ptr %3) #10
  ret void
}

; Function Attrs: nounwind uwtable
define internal void @dopr_outch(i32 noundef %0, ptr noundef %1) #0 {
  %3 = alloca i32, align 4
  %4 = alloca ptr, align 8
  store i32 %0, ptr %3, align 4
  store ptr %1, ptr %4, align 8
  %5 = load ptr, ptr %4, align 8
  %6 = getelementptr inbounds nuw %struct.PrintfTarget, ptr %5, i32 0, i32 2
  %7 = load ptr, ptr %6, align 8
  %8 = icmp ne ptr %7, null
  br i1 %8, label %9, label %29

9:                                                ; preds = %2
  %10 = load ptr, ptr %4, align 8
  %11 = getelementptr inbounds nuw %struct.PrintfTarget, ptr %10, i32 0, i32 0
  %12 = load ptr, ptr %11, align 8
  %13 = load ptr, ptr %4, align 8
  %14 = getelementptr inbounds nuw %struct.PrintfTarget, ptr %13, i32 0, i32 2
  %15 = load ptr, ptr %14, align 8
  %16 = icmp uge ptr %12, %15
  br i1 %16, label %17, label %29

17:                                               ; preds = %9
  %18 = load ptr, ptr %4, align 8
  %19 = getelementptr inbounds nuw %struct.PrintfTarget, ptr %18, i32 0, i32 3
  %20 = load ptr, ptr %19, align 8
  %21 = icmp eq ptr %20, null
  br i1 %21, label %22, label %27

22:                                               ; preds = %17
  %23 = load ptr, ptr %4, align 8
  %24 = getelementptr inbounds nuw %struct.PrintfTarget, ptr %23, i32 0, i32 4
  %25 = load i32, ptr %24, align 8
  %26 = add i32 %25, 1
  store i32 %26, ptr %24, align 8
  br label %36

27:                                               ; preds = %17
  %28 = load ptr, ptr %4, align 8
  call void @flushbuffer(ptr noundef %28)
  br label %29

29:                                               ; preds = %27, %9, %2
  %30 = load i32, ptr %3, align 4
  %31 = trunc i32 %30 to i8
  %32 = load ptr, ptr %4, align 8
  %33 = getelementptr inbounds nuw %struct.PrintfTarget, ptr %32, i32 0, i32 0
  %34 = load ptr, ptr %33, align 8
  %35 = getelementptr inbounds nuw i8, ptr %34, i32 1
  store ptr %35, ptr %33, align 8
  store i8 %31, ptr %34, align 1
  br label %36

36:                                               ; preds = %29, %22
  ret void
}

; Function Attrs: nounwind uwtable
define i32 @pg_strfromd(ptr noundef %0, i64 noundef %1, i32 noundef %2, double noundef %3) #0 {
  %5 = alloca ptr, align 8
  %6 = alloca i64, align 8
  %7 = alloca i32, align 4
  %8 = alloca double, align 8
  %9 = alloca %struct.PrintfTarget, align 8
  %10 = alloca i32, align 4
  %11 = alloca i32, align 4
  %12 = alloca [8 x i8], align 1
  %13 = alloca [64 x i8], align 16
  store ptr %0, ptr %5, align 8
  store i64 %1, ptr %6, align 8
  store i32 %2, ptr %7, align 4
  store double %3, ptr %8, align 8
  call void @llvm.lifetime.start.p0(i64 40, ptr %9) #10
  call void @llvm.lifetime.start.p0(i64 4, ptr %10) #10
  store i32 0, ptr %10, align 4
  call void @llvm.lifetime.start.p0(i64 4, ptr %11) #10
  call void @llvm.lifetime.start.p0(i64 8, ptr %12) #10
  call void @llvm.lifetime.start.p0(i64 64, ptr %13) #10
  %14 = load ptr, ptr %5, align 8
  %15 = getelementptr inbounds nuw %struct.PrintfTarget, ptr %9, i32 0, i32 0
  store ptr %14, ptr %15, align 8
  %16 = getelementptr inbounds nuw %struct.PrintfTarget, ptr %9, i32 0, i32 1
  store ptr %14, ptr %16, align 8
  %17 = load ptr, ptr %5, align 8
  %18 = load i64, ptr %6, align 8
  %19 = getelementptr inbounds nuw i8, ptr %17, i64 %18
  %20 = getelementptr inbounds i8, ptr %19, i64 -1
  %21 = getelementptr inbounds nuw %struct.PrintfTarget, ptr %9, i32 0, i32 2
  store ptr %20, ptr %21, align 8
  %22 = getelementptr inbounds nuw %struct.PrintfTarget, ptr %9, i32 0, i32 3
  store ptr null, ptr %22, align 8
  %23 = getelementptr inbounds nuw %struct.PrintfTarget, ptr %9, i32 0, i32 4
  store i32 0, ptr %23, align 8
  %24 = getelementptr inbounds nuw %struct.PrintfTarget, ptr %9, i32 0, i32 5
  store i8 0, ptr %24, align 4
  %25 = load i32, ptr %7, align 4
  %26 = icmp slt i32 %25, 1
  br i1 %26, label %27, label %28

27:                                               ; preds = %4
  store i32 1, ptr %7, align 4
  br label %33

28:                                               ; preds = %4
  %29 = load i32, ptr %7, align 4
  %30 = icmp sgt i32 %29, 32
  br i1 %30, label %31, label %32

31:                                               ; preds = %28
  store i32 32, ptr %7, align 4
  br label %32

32:                                               ; preds = %31, %28
  br label %33

33:                                               ; preds = %32, %27
  %34 = load double, ptr %8, align 8
  %35 = call i1 @llvm.is.fpclass.f64(double %34, i32 3)
  br i1 %35, label %36, label %39

36:                                               ; preds = %33
  %37 = getelementptr inbounds [64 x i8], ptr %13, i64 0, i64 0
  %38 = call ptr @strcpy(ptr noundef %37, ptr noundef @.str) #10
  store i32 3, ptr %11, align 4
  br label %74

39:                                               ; preds = %33
  %40 = load double, ptr %8, align 8
  %41 = fcmp olt double %40, 0.000000e+00
  br i1 %41, label %48, label %42

42:                                               ; preds = %39
  %43 = load double, ptr %8, align 8
  %44 = fcmp oeq double %43, 0.000000e+00
  br i1 %44, label %45, label %51

45:                                               ; preds = %42
  %46 = call i32 @memcmp(ptr noundef %8, ptr noundef @pg_strfromd.dzero, i64 noundef 8) #12
  %47 = icmp ne i32 %46, 0
  br i1 %47, label %48, label %51

48:                                               ; preds = %45, %39
  store i32 45, ptr %10, align 4
  %49 = load double, ptr %8, align 8
  %50 = fneg double %49
  store double %50, ptr %8, align 8
  br label %51

51:                                               ; preds = %48, %45, %42
  %52 = load double, ptr %8, align 8
  %53 = call i1 @llvm.is.fpclass.f64(double %52, i32 516)
  br i1 %53, label %54, label %57

54:                                               ; preds = %51
  %55 = getelementptr inbounds [64 x i8], ptr %13, i64 0, i64 0
  %56 = call ptr @strcpy(ptr noundef %55, ptr noundef @.str.1) #10
  store i32 8, ptr %11, align 4
  br label %73

57:                                               ; preds = %51
  %58 = getelementptr inbounds [8 x i8], ptr %12, i64 0, i64 0
  store i8 37, ptr %58, align 1
  %59 = getelementptr inbounds [8 x i8], ptr %12, i64 0, i64 1
  store i8 46, ptr %59, align 1
  %60 = getelementptr inbounds [8 x i8], ptr %12, i64 0, i64 2
  store i8 42, ptr %60, align 1
  %61 = getelementptr inbounds [8 x i8], ptr %12, i64 0, i64 3
  store i8 103, ptr %61, align 1
  %62 = getelementptr inbounds [8 x i8], ptr %12, i64 0, i64 4
  store i8 0, ptr %62, align 1
  %63 = getelementptr inbounds [64 x i8], ptr %13, i64 0, i64 0
  %64 = getelementptr inbounds [8 x i8], ptr %12, i64 0, i64 0
  %65 = load i32, ptr %7, align 4
  %66 = load double, ptr %8, align 8
  %67 = call i32 (ptr, i64, ptr, ...) @snprintf(ptr noundef %63, i64 noundef 64, ptr noundef %64, i32 noundef %65, double noundef %66) #10
  store i32 %67, ptr %11, align 4
  %68 = load i32, ptr %11, align 4
  %69 = icmp slt i32 %68, 0
  br i1 %69, label %70, label %72

70:                                               ; preds = %57
  %71 = getelementptr inbounds nuw %struct.PrintfTarget, ptr %9, i32 0, i32 5
  store i8 1, ptr %71, align 4
  br label %82

72:                                               ; preds = %57
  br label %73

73:                                               ; preds = %72, %54
  br label %74

74:                                               ; preds = %73, %36
  %75 = load i32, ptr %10, align 4
  %76 = icmp ne i32 %75, 0
  br i1 %76, label %77, label %79

77:                                               ; preds = %74
  %78 = load i32, ptr %10, align 4
  call void @dopr_outch(i32 noundef %78, ptr noundef %9)
  br label %79

79:                                               ; preds = %77, %74
  %80 = getelementptr inbounds [64 x i8], ptr %13, i64 0, i64 0
  %81 = load i32, ptr %11, align 4
  call void @dostr(ptr noundef %80, i32 noundef %81, ptr noundef %9)
  br label %82

82:                                               ; preds = %79, %70
  %83 = getelementptr inbounds nuw %struct.PrintfTarget, ptr %9, i32 0, i32 0
  %84 = load ptr, ptr %83, align 8
  store i8 0, ptr %84, align 1
  %85 = getelementptr inbounds nuw %struct.PrintfTarget, ptr %9, i32 0, i32 5
  %86 = load i8, ptr %85, align 4, !range !3, !noundef !4
  %87 = trunc i8 %86 to i1
  br i1 %87, label %88, label %89

88:                                               ; preds = %82
  br label %101

89:                                               ; preds = %82
  %90 = getelementptr inbounds nuw %struct.PrintfTarget, ptr %9, i32 0, i32 0
  %91 = load ptr, ptr %90, align 8
  %92 = getelementptr inbounds nuw %struct.PrintfTarget, ptr %9, i32 0, i32 1
  %93 = load ptr, ptr %92, align 8
  %94 = ptrtoint ptr %91 to i64
  %95 = ptrtoint ptr %93 to i64
  %96 = sub i64 %94, %95
  %97 = getelementptr inbounds nuw %struct.PrintfTarget, ptr %9, i32 0, i32 4
  %98 = load i32, ptr %97, align 8
  %99 = sext i32 %98 to i64
  %100 = add i64 %96, %99
  br label %101

101:                                              ; preds = %89, %88
  %102 = phi i64 [ -1, %88 ], [ %100, %89 ]
  %103 = trunc i64 %102 to i32
  call void @llvm.lifetime.end.p0(i64 64, ptr %13) #10
  call void @llvm.lifetime.end.p0(i64 8, ptr %12) #10
  call void @llvm.lifetime.end.p0(i64 4, ptr %11) #10
  call void @llvm.lifetime.end.p0(i64 4, ptr %10) #10
  call void @llvm.lifetime.end.p0(i64 40, ptr %9) #10
  ret i32 %103
}