; Function Attrs: nofree nounwind uwtable
define i32 @pg_strfromd(ptr noundef %0, i64 noundef %1, i32 noundef %2, double noundef %3) local_unnamed_addr #4 {
  %5 = alloca %struct.PrintfTarget, align 8
  %6 = alloca [8 x i8], align 1
  %7 = alloca [64 x i8], align 16
  call void @llvm.lifetime.start.p0(i64 40, ptr nonnull %5) #14
  call void @llvm.lifetime.start.p0(i64 8, ptr nonnull %6) #14
  call void @llvm.lifetime.start.p0(i64 64, ptr nonnull %7) #14
  store ptr %0, ptr %5, align 8
  %8 = getelementptr inbounds nuw i8, ptr %5, i64 8
  store ptr %0, ptr %8, align 8
  %9 = getelementptr inbounds nuw i8, ptr %0, i64 %1
  %10 = getelementptr inbounds i8, ptr %9, i64 -1
  %11 = getelementptr inbounds nuw i8, ptr %5, i64 16
  store ptr %10, ptr %11, align 8
  %12 = getelementptr inbounds nuw i8, ptr %5, i64 24
  store ptr null, ptr %12, align 8
  %13 = getelementptr inbounds nuw i8, ptr %5, i64 32
  store i32 0, ptr %13, align 8
  %14 = getelementptr inbounds nuw i8, ptr %5, i64 36
  store i8 0, ptr %14, align 4
  %15 = icmp slt i32 %2, 1
  %16 = tail call i32 @llvm.umin.i32(i32 %2, i32 32)
  %.010 = select i1 %15, i32 1, i32 %16
  %17 = fcmp uno double %3, 0.000000e+00
  br i1 %17, label %.thread, label %18

.thread:                                          ; preds = %4
  store i32 5136718, ptr %7, align 16
  br label %39

18:                                               ; preds = %4
  %19 = fcmp olt double %3, 0.000000e+00
  br i1 %19, label %21, label %20

20:                                               ; preds = %18
  %.not = tail call i1 @llvm.is.fpclass.f64(double %3, i32 960)
  br i1 %.not, label %23, label %21

21:                                               ; preds = %20, %18
  %22 = fneg double %3
  br label %23

23:                                               ; preds = %21, %20
  %.018 = phi double [ %22, %21 ], [ %3, %20 ]
  %.not14 = phi i1 [ false, %21 ], [ true, %20 ]
  %.1 = phi i8 [ 45, %21 ], [ 0, %20 ]
  %24 = tail call double @llvm.fabs.f64(double %.018)
  %25 = fcmp oeq double %24, 0x7FF0000000000000
  br i1 %25, label %26, label %27

26:                                               ; preds = %23
  call void @llvm.memcpy.p0.p0.i64(ptr noundef nonnull align 16 dereferenceable(9) %7, ptr noundef nonnull align 1 dereferenceable(9) @.str.1, i64 9, i1 false) #14
  br label %34

27:                                               ; preds = %23
  store i8 37, ptr %6, align 1
  %28 = getelementptr inbounds nuw i8, ptr %6, i64 1
  store i8 46, ptr %28, align 1
  %29 = getelementptr inbounds nuw i8, ptr %6, i64 2
  store i8 42, ptr %29, align 1
  %30 = getelementptr inbounds nuw i8, ptr %6, i64 3
  store i8 103, ptr %30, align 1
  %31 = getelementptr inbounds nuw i8, ptr %6, i64 4
  store i8 0, ptr %31, align 1
  %32 = call i32 (ptr, i64, ptr, ...) @snprintf(ptr noundef nonnull dereferenceable(1) %7, i64 noundef 64, ptr noundef nonnull %6, i32 noundef %.010, double noundef %.018) #14
  %33 = icmp slt i32 %32, 0
  br i1 %33, label %.thread26, label %34

.thread26:                                        ; preds = %27
  store i8 0, ptr %0, align 1
  br label %46

34:                                               ; preds = %26, %27
  %.0 = phi i32 [ 8, %26 ], [ %32, %27 ]
  br i1 %.not14, label %39, label %35

35:                                               ; preds = %34
  %.not7.i = icmp ult ptr %0, %10
  br i1 %.not7.i, label %37, label %36

36:                                               ; preds = %35
  store i32 1, ptr %13, align 8
  br label %39

37:                                               ; preds = %35
  %38 = getelementptr inbounds nuw i8, ptr %0, i64 1
  store ptr %38, ptr %5, align 8
  store i8 %.1, ptr %0, align 1
  br label %39

39:                                               ; preds = %34, %.thread, %36, %37
  %.022 = phi i32 [ 3, %.thread ], [ %.0, %34 ], [ %.0, %36 ], [ %.0, %37 ]
  call fastcc void @dostr(ptr noundef nonnull %7, i32 noundef %.022, ptr noundef %5)
  %.pre = load ptr, ptr %5, align 8
  %.pre23 = load i8, ptr %14, align 4, !range !3
  %.pre24 = load ptr, ptr %8, align 8
  %.pre25 = load i32, ptr %13, align 8
  %.pre23.fr = freeze i8 %.pre23
  %40 = trunc i8 %.pre23.fr to i1
  store i8 0, ptr %.pre, align 1
  %41 = ptrtoint ptr %.pre to i64
  %42 = ptrtoint ptr %.pre24 to i64
  %43 = sub i64 %41, %42
  %44 = trunc i64 %43 to i32
  %45 = add i32 %.pre25, %44
  br i1 %40, label %46, label %47

46:                                               ; preds = %.thread26, %39
  br label %47

47:                                               ; preds = %39, %46
  %48 = phi i32 [ -1, %46 ], [ %45, %39 ]
  call void @llvm.lifetime.end.p0(i64 64, ptr nonnull %7) #14
  call void @llvm.lifetime.end.p0(i64 8, ptr nonnull %6) #14
  call void @llvm.lifetime.end.p0(i64 40, ptr nonnull %5) #14
  ret i32 %48
}